; Function Attrs: nounwind uwtable
define dso_local double @jv_number_value(i64 %0, ptr %1) local_unnamed_addr #2 {
  %3 = and i64 %0, 255
  %4 = icmp eq i64 %3, 148
  br i1 %4, label %5, label %11

5:                                                ; preds = %2
  %6 = getelementptr inbounds nuw i8, ptr %1, i64 8
  %7 = load double, ptr %6, align 8, !tbaa !24
  %8 = fcmp uno double %7, 0.000000e+00
  br i1 %8, label %9, label %14

9:                                                ; preds = %5
  %10 = tail call fastcc double @jvp_literal_number_to_double(ptr nonnull %1)
  store double %10, ptr %6, align 8, !tbaa !24
  br label %14

11:                                               ; preds = %2
  %12 = ptrtoint ptr %1 to i64
  %13 = bitcast i64 %12 to double
  br label %14

14:                                               ; preds = %5, %9, %11
  %.0 = phi double [ %13, %11 ], [ %10, %9 ], [ %7, %5 ]
  ret double %.0
}